; Function Attrs: mustprogress uwtable
define hidden void @_ZN4cvc58internal6theory7strings5utils20getConstantComponentENS0_12NodeTemplateILb1EEE(ptr dead_on_unwind noalias writable writeonly sret(%"class.cvc5::internal::NodeTemplate") align 8 captures(none) %0, ptr noundef %1) local_unnamed_addr #4 personality ptr @__gxx_personality_v0 {
  %3 = alloca %"class.cvc5::internal::NodeTemplate", align 8
  %4 = load ptr, ptr %1, align 8, !tbaa !8
  %5 = getelementptr inbounds nuw i8, ptr %4, i64 8
  %6 = load i64, ptr %5, align 8
  %7 = and i64 %6, 1023
  %8 = icmp eq i64 %7, 346
  br i1 %8, label %9, label %82

9:                                                ; preds = %2
  call void @llvm.lifetime.start.p0(i64 8, ptr nonnull %3) #23
  tail call void @llvm.experimental.noalias.scope.decl(metadata !116)
  %10 = tail call noundef i32 @_ZN4cvc58internal4kind10metaKindOfENS1_6Kind_tE(i32 noundef 346), !noalias !116
  %11 = icmp eq i32 %10, 2
  %12 = getelementptr inbounds nuw i8, ptr %4, i64 24
  %13 = zext i1 %11 to i64
  %14 = getelementptr inbounds nuw [0 x ptr], ptr %12, i64 0, i64 %13
  %15 = load ptr, ptr %14, align 8, !tbaa !39, !noalias !116
  store ptr %15, ptr %3, align 8, !tbaa !8, !alias.scope !116
  %16 = load i64, ptr %15, align 8, !noalias !116
  %17 = lshr i64 %16, 40
  %18 = trunc nuw nsw i64 %17 to i32
  %19 = and i32 %18, 1048575
  %20 = icmp samesign ult i32 %19, 1048574
  br i1 %20, label %21, label %26, !prof !15

21:                                               ; preds = %9
  %22 = add i64 %16, 1099511627776
  %23 = and i64 %22, 1152920405095219200
  %24 = and i64 %16, -1152920405095219201
  %25 = or disjoint i64 %23, %24
  store i64 %25, ptr %15, align 8, !noalias !116
  br label %_ZNK4cvc58internal12NodeTemplateILb1EEixEi.exit

26:                                               ; preds = %9
  %27 = icmp eq i32 %19, 1048574
  br i1 %27, label %28, label %_ZNK4cvc58internal12NodeTemplateILb1EEixEi.exit, !prof !16

28:                                               ; preds = %26
  %29 = or i64 %16, 1152920405095219200
  store i64 %29, ptr %15, align 8, !noalias !116
  tail call void @_ZN4cvc58internal4expr9NodeValue20markRefCountMaxedOutEv(ptr noundef nonnull align 8 dereferenceable(24) %15), !noalias !116
  br label %_ZNK4cvc58internal12NodeTemplateILb1EEixEi.exit

_ZNK4cvc58internal12NodeTemplateILb1EEixEi.exit:  ; preds = %21, %26, %28
  %30 = invoke noundef zeroext i1 @_ZNK4cvc58internal12NodeTemplateILb1EE7isConstEv(ptr noundef nonnull align 8 dereferenceable(8) %3)
          to label %31 unwind label %80

31:                                               ; preds = %_ZNK4cvc58internal12NodeTemplateILb1EEixEi.exit
  br i1 %30, label %32, label %53

32:                                               ; preds = %31
  call void @llvm.experimental.noalias.scope.decl(metadata !119)
  %33 = load ptr, ptr %1, align 8, !tbaa !8, !noalias !119
  %34 = getelementptr inbounds nuw i8, ptr %33, i64 8
  %35 = load i64, ptr %34, align 8, !noalias !119
  %36 = trunc i64 %35 to i32
  %37 = and i32 %36, 1023
  %38 = icmp eq i32 %37, 1023
  %39 = select i1 %38, i32 -1, i32 %37
  %40 = invoke noundef i32 @_ZN4cvc58internal4kind10metaKindOfENS1_6Kind_tE(i32 noundef %39)
          to label %.noexc unwind label %80

.noexc:                                           ; preds = %32
  %41 = icmp eq i32 %40, 2
  %42 = getelementptr inbounds nuw i8, ptr %33, i64 24
  %43 = zext i1 %41 to i64
  %44 = getelementptr inbounds nuw [0 x ptr], ptr %42, i64 0, i64 %43
  %45 = load ptr, ptr %44, align 8, !tbaa !39, !noalias !119
  store ptr %45, ptr %0, align 8, !tbaa !8, !alias.scope !119
  %46 = load i64, ptr %45, align 8, !noalias !119
  %47 = lshr i64 %46, 40
  %48 = trunc nuw nsw i64 %47 to i32
  %49 = and i32 %48, 1048575
  %50 = icmp samesign ult i32 %49, 1048574
  br i1 %50, label %_ZNK4cvc58internal12NodeTemplateILb1EEixEi.exit2.sink.split, label %51, !prof !15

51:                                               ; preds = %.noexc
  %52 = icmp eq i32 %49, 1048574
  br i1 %52, label %.invoke, label %_ZNK4cvc58internal12NodeTemplateILb1EEixEi.exit2, !prof !16

53:                                               ; preds = %31
  call void @llvm.experimental.noalias.scope.decl(metadata !122)
  %54 = load ptr, ptr @_ZN4cvc58internal12NodeTemplateILb1EE6s_nullE, align 8, !tbaa !8, !noalias !122
  store ptr %54, ptr %0, align 8, !tbaa !8, !alias.scope !122
  %55 = load i64, ptr %54, align 8, !noalias !122
  %56 = lshr i64 %55, 40
  %57 = trunc nuw nsw i64 %56 to i32
  %58 = and i32 %57, 1048575
  %59 = icmp samesign ult i32 %58, 1048574
  br i1 %59, label %_ZNK4cvc58internal12NodeTemplateILb1EEixEi.exit2.sink.split, label %60, !prof !15

60:                                               ; preds = %53
  %61 = icmp eq i32 %58, 1048574
  br i1 %61, label %.invoke, label %_ZNK4cvc58internal12NodeTemplateILb1EEixEi.exit2, !prof !16

.invoke:                                          ; preds = %60, %51
  %.sink12 = phi i64 [ %46, %51 ], [ %55, %60 ]
  %.sink11 = phi ptr [ %45, %51 ], [ %54, %60 ]
  %62 = or i64 %.sink12, 1152920405095219200
  store i64 %62, ptr %.sink11, align 8, !noalias !125
  invoke void @_ZN4cvc58internal4expr9NodeValue20markRefCountMaxedOutEv(ptr noundef nonnull align 8 dereferenceable(24) %.sink11)
          to label %_ZNK4cvc58internal12NodeTemplateILb1EEixEi.exit2 unwind label %80

_ZNK4cvc58internal12NodeTemplateILb1EEixEi.exit2.sink.split: ; preds = %53, %.noexc
  %.sink9 = phi i64 [ %46, %.noexc ], [ %55, %53 ]
  %.sink5 = phi ptr [ %45, %.noexc ], [ %54, %53 ]
  %63 = add i64 %.sink9, 1099511627776
  %64 = and i64 %63, 1152920405095219200
  %65 = and i64 %.sink9, -1152920405095219201
  %66 = or disjoint i64 %64, %65
  store i64 %66, ptr %.sink5, align 8, !noalias !125
  br label %_ZNK4cvc58internal12NodeTemplateILb1EEixEi.exit2

_ZNK4cvc58internal12NodeTemplateILb1EEixEi.exit2: ; preds = %.invoke, %_ZNK4cvc58internal12NodeTemplateILb1EEixEi.exit2.sink.split, %60, %51
  %67 = load ptr, ptr %3, align 8, !tbaa !8
  %68 = load i64, ptr %67, align 8
  %69 = and i64 %68, 1152920405095219200
  %.not.i.i = icmp eq i64 %69, 1152920405095219200
  br i1 %.not.i.i, label %_ZN4cvc58internal12NodeTemplateILb1EED2Ev.exit, label %70, !prof !16

70:                                               ; preds = %_ZNK4cvc58internal12NodeTemplateILb1EEixEi.exit2
  %71 = add i64 %68, 1152920405095219200
  %72 = and i64 %71, 1152920405095219200
  %73 = and i64 %68, -1152920405095219201
  %74 = or disjoint i64 %72, %73
  store i64 %74, ptr %67, align 8
  %75 = icmp eq i64 %72, 0
  br i1 %75, label %76, label %_ZN4cvc58internal12NodeTemplateILb1EED2Ev.exit, !prof !16

76:                                               ; preds = %70
  invoke void @_ZN4cvc58internal4expr9NodeValue15markForDeletionEv(ptr noundef nonnull align 8 dereferenceable(24) %67)
          to label %_ZN4cvc58internal12NodeTemplateILb1EED2Ev.exit unwind label %77

77:                                               ; preds = %76
  %78 = landingpad { ptr, i32 }
          catch ptr null
  %79 = extractvalue { ptr, i32 } %78, 0
  call void @__clang_call_terminate(ptr %79) #24
  unreachable

_ZN4cvc58internal12NodeTemplateILb1EED2Ev.exit:   ; preds = %_ZNK4cvc58internal12NodeTemplateILb1EEixEi.exit2, %70, %76
  call void @llvm.lifetime.end.p0(i64 8, ptr nonnull %3) #23
  br label %_ZN4cvc58internal12NodeTemplateILb1EEC2ERKS2_.exit

80:                                               ; preds = %.invoke, %32, %_ZNK4cvc58internal12NodeTemplateILb1EEixEi.exit
  %81 = landingpad { ptr, i32 }
          cleanup
  call void @_ZN4cvc58internal12NodeTemplateILb1EED2Ev(ptr noundef nonnull align 8 dereferenceable(8) %3) #23
  call void @llvm.lifetime.end.p0(i64 8, ptr nonnull %3) #23
  resume { ptr, i32 } %81

82:                                               ; preds = %2
  %83 = tail call noundef zeroext i1 @_ZNK4cvc58internal12NodeTemplateILb1EE7isConstEv(ptr noundef nonnull align 8 dereferenceable(8) %1)
  br i1 %83, label %84, label %100

84:                                               ; preds = %82
  %85 = load ptr, ptr %1, align 8, !tbaa !8
  store ptr %85, ptr %0, align 8, !tbaa !8
  %86 = load i64, ptr %85, align 8
  %87 = lshr i64 %86, 40
  %88 = trunc nuw nsw i64 %87 to i32
  %89 = and i32 %88, 1048575
  %90 = icmp samesign ult i32 %89, 1048574
  br i1 %90, label %91, label %96, !prof !15

91:                                               ; preds = %84
  %92 = add i64 %86, 1099511627776
  %93 = and i64 %92, 1152920405095219200
  %94 = and i64 %86, -1152920405095219201
  %95 = or disjoint i64 %93, %94
  store i64 %95, ptr %85, align 8
  br label %_ZN4cvc58internal12NodeTemplateILb1EEC2ERKS2_.exit

96:                                               ; preds = %84
  %97 = icmp eq i32 %89, 1048574
  br i1 %97, label %98, label %_ZN4cvc58internal12NodeTemplateILb1EEC2ERKS2_.exit, !prof !16

98:                                               ; preds = %96
  %99 = or i64 %86, 1152920405095219200
  store i64 %99, ptr %85, align 8
  tail call void @_ZN4cvc58internal4expr9NodeValue20markRefCountMaxedOutEv(ptr noundef nonnull align 8 dereferenceable(24) %85)
  br label %_ZN4cvc58internal12NodeTemplateILb1EEC2ERKS2_.exit

100:                                              ; preds = %82
  tail call void @llvm.experimental.noalias.scope.decl(metadata !126)
  %101 = load ptr, ptr @_ZN4cvc58internal12NodeTemplateILb1EE6s_nullE, align 8, !tbaa !8, !noalias !126
  store ptr %101, ptr %0, align 8, !tbaa !8, !alias.scope !126
  %102 = load i64, ptr %101, align 8, !noalias !126
  %103 = lshr i64 %102, 40
  %104 = trunc nuw nsw i64 %103 to i32
  %105 = and i32 %104, 1048575
  %106 = icmp samesign ult i32 %105, 1048574
  br i1 %106, label %107, label %112, !prof !15

107:                                              ; preds = %100
  %108 = add i64 %102, 1099511627776
  %109 = and i64 %108, 1152920405095219200
  %110 = and i64 %102, -1152920405095219201
  %111 = or disjoint i64 %109, %110
  store i64 %111, ptr %101, align 8, !noalias !126
  br label %_ZN4cvc58internal12NodeTemplateILb1EEC2ERKS2_.exit

112:                                              ; preds = %100
  %113 = icmp eq i32 %105, 1048574
  br i1 %113, label %114, label %_ZN4cvc58internal12NodeTemplateILb1EEC2ERKS2_.exit, !prof !16

114:                                              ; preds = %112
  %115 = or i64 %102, 1152920405095219200
  store i64 %115, ptr %101, align 8, !noalias !126
  tail call void @_ZN4cvc58internal4expr9NodeValue20markRefCountMaxedOutEv(ptr noundef nonnull align 8 dereferenceable(24) %101), !noalias !126
  br label %_ZN4cvc58internal12NodeTemplateILb1EEC2ERKS2_.exit

_ZN4cvc58internal12NodeTemplateILb1EEC2ERKS2_.exit: ; preds = %114, %112, %107, %98, %96, %91, %_ZN4cvc58internal12NodeTemplateILb1EED2Ev.exit
  ret void
}